target datalayout = "e-m:e-p270:32:32-p271:32:32-p272:64:64-i64:64-i128:128-f80:128-n8:16:32:64-S128"
target triple = "x86_64-pc-linux-gnu"

%struct.re_pattern_buffer = type { ptr, i32, i32, i32, i32, i32, i32, i32, i32, i32, i32, i32, i32, i32, ptr, ptr, ptr, ptr, i32, i32, i32, i32, i64, i64, i32, ptr, ptr, [256 x i8], ptr, ptr, i64, i64, i64, ptr }
%struct._Node = type { %union.anon }
%union.anon = type { %struct.StrNode }
%struct.StrNode = type { %struct.NodeBase, ptr, ptr, i32, i32, [24 x i8] }
%struct.NodeBase = type { i32 }
%struct.ConsAltNode = type { %struct.NodeBase, ptr, ptr }
%struct.QtfrNode = type { %struct.NodeBase, i32, ptr, i32, i32, i32, i32, ptr, ptr, i32 }
%struct.EncloseNode = type { %struct.NodeBase, i32, i32, i32, i32, i32, ptr, i64, i64, i32, i32 }
%struct.AnchorNode = type { %struct.NodeBase, i32, ptr, i32, i32 }

; Function Attrs: nounwind sspstrong uwtable
define internal ptr @get_head_value_node(ptr noundef %0, i32 noundef %1, ptr noundef %2) #0 {
  %4 = alloca ptr, align 8
  %5 = alloca i32, align 4
  %6 = alloca ptr, align 8
  %7 = alloca ptr, align 8
  %8 = alloca ptr, align 8
  %9 = alloca i32, align 4
  %10 = alloca ptr, align 8
  %11 = alloca ptr, align 8
  %12 = alloca i32, align 4
  store ptr %0, ptr %4, align 8, !tbaa !66
  store i32 %1, ptr %5, align 4, !tbaa !7
  store ptr %2, ptr %6, align 8, !tbaa !21
  call void @llvm.lifetime.start.p0(i64 8, ptr %7) #11
  store ptr null, ptr %7, align 8, !tbaa !66
  %13 = load ptr, ptr %4, align 8, !tbaa !66
  %14 = getelementptr inbounds nuw %struct._Node, ptr %13, i32 0, i32 0
  %15 = getelementptr inbounds nuw %struct.NodeBase, ptr %14, i32 0, i32 0
  %16 = load i32, ptr %15, align 8, !tbaa !38
  switch i32 %16, label %130 [
    i32 4, label %17
    i32 9, label %17
    i32 3, label %17
    i32 10, label %17
    i32 2, label %18
    i32 1, label %18
    i32 8, label %24
    i32 0, label %32
    i32 5, label %66
    i32 6, label %81
    i32 7, label %115
  ]

17:                                               ; preds = %3, %3, %3, %3
  br label %131

18:                                               ; preds = %3, %3
  %19 = load i32, ptr %5, align 4, !tbaa !7
  %20 = icmp eq i32 %19, 0
  br i1 %20, label %21, label %23

21:                                               ; preds = %18
  %22 = load ptr, ptr %4, align 8, !tbaa !66
  store ptr %22, ptr %7, align 8, !tbaa !66
  br label %23

23:                                               ; preds = %21, %18
  br label %131

24:                                               ; preds = %3
  %25 = load ptr, ptr %4, align 8, !tbaa !66
  %26 = getelementptr inbounds nuw %struct._Node, ptr %25, i32 0, i32 0
  %27 = getelementptr inbounds nuw %struct.ConsAltNode, ptr %26, i32 0, i32 1
  %28 = load ptr, ptr %27, align 8, !tbaa !38
  %29 = load i32, ptr %5, align 4, !tbaa !7
  %30 = load ptr, ptr %6, align 8, !tbaa !21
  %31 = call ptr @get_head_value_node(ptr noundef %28, i32 noundef %29, ptr noundef %30)
  store ptr %31, ptr %7, align 8, !tbaa !66
  br label %131

32:                                               ; preds = %3
  call void @llvm.lifetime.start.p0(i64 8, ptr %8) #11
  %33 = load ptr, ptr %4, align 8, !tbaa !66
  %34 = getelementptr inbounds nuw %struct._Node, ptr %33, i32 0, i32 0
  store ptr %34, ptr %8, align 8, !tbaa !36
  %35 = load ptr, ptr %8, align 8, !tbaa !36
  %36 = getelementptr inbounds nuw %struct.StrNode, ptr %35, i32 0, i32 2
  %37 = load ptr, ptr %36, align 8, !tbaa !130
  %38 = load ptr, ptr %8, align 8, !tbaa !36
  %39 = getelementptr inbounds nuw %struct.StrNode, ptr %38, i32 0, i32 1
  %40 = load ptr, ptr %39, align 8, !tbaa !128
  %41 = icmp ule ptr %37, %40
  br i1 %41, label %42, label %43

42:                                               ; preds = %32
  store i32 2, ptr %9, align 4
  br label %63

43:                                               ; preds = %32
  %44 = load i32, ptr %5, align 4, !tbaa !7
  %45 = icmp ne i32 %44, 0
  br i1 %45, label %46, label %60

46:                                               ; preds = %43
  %47 = load ptr, ptr %4, align 8, !tbaa !66
  %48 = getelementptr inbounds nuw %struct._Node, ptr %47, i32 0, i32 0
  %49 = getelementptr inbounds nuw %struct.StrNode, ptr %48, i32 0, i32 3
  %50 = load i32, ptr %49, align 8, !tbaa !38
  %51 = and i32 %50, 1
  %52 = icmp ne i32 %51, 0
  br i1 %52, label %60, label %53

53:                                               ; preds = %46
  %54 = load ptr, ptr %6, align 8, !tbaa !21
  %55 = getelementptr inbounds nuw %struct.re_pattern_buffer, ptr %54, i32 0, i32 13
  %56 = load i32, ptr %55, align 8, !tbaa !64
  %57 = and i32 %56, 1
  %58 = icmp ne i32 %57, 0
  br i1 %58, label %59, label %60

59:                                               ; preds = %53
  br label %62

60:                                               ; preds = %53, %46, %43
  %61 = load ptr, ptr %4, align 8, !tbaa !66
  store ptr %61, ptr %7, align 8, !tbaa !66
  br label %62

62:                                               ; preds = %60, %59
  store i32 0, ptr %9, align 4
  br label %63

63:                                               ; preds = %62, %42
  call void @llvm.lifetime.end.p0(i64 8, ptr %8) #11
  %64 = load i32, ptr %9, align 4
  switch i32 %64, label %133 [
    i32 0, label %65
    i32 2, label %131
  ]

65:                                               ; preds = %63
  br label %131

66:                                               ; preds = %3
  call void @llvm.lifetime.start.p0(i64 8, ptr %10) #11
  %67 = load ptr, ptr %4, align 8, !tbaa !66
  %68 = getelementptr inbounds nuw %struct._Node, ptr %67, i32 0, i32 0
  store ptr %68, ptr %10, align 8, !tbaa !36
  %69 = load ptr, ptr %10, align 8, !tbaa !36
  %70 = getelementptr inbounds nuw %struct.QtfrNode, ptr %69, i32 0, i32 3
  %71 = load i32, ptr %70, align 8, !tbaa !127
  %72 = icmp sgt i32 %71, 0
  br i1 %72, label %73, label %80

73:                                               ; preds = %66
  %74 = load ptr, ptr %10, align 8, !tbaa !36
  %75 = getelementptr inbounds nuw %struct.QtfrNode, ptr %74, i32 0, i32 2
  %76 = load ptr, ptr %75, align 8, !tbaa !122
  %77 = load i32, ptr %5, align 4, !tbaa !7
  %78 = load ptr, ptr %6, align 8, !tbaa !21
  %79 = call ptr @get_head_value_node(ptr noundef %76, i32 noundef %77, ptr noundef %78)
  store ptr %79, ptr %7, align 8, !tbaa !66
  br label %80

80:                                               ; preds = %73, %66
  call void @llvm.lifetime.end.p0(i64 8, ptr %10) #11
  br label %131

81:                                               ; preds = %3
  call void @llvm.lifetime.start.p0(i64 8, ptr %11) #11
  %82 = load ptr, ptr %4, align 8, !tbaa !66
  %83 = getelementptr inbounds nuw %struct._Node, ptr %82, i32 0, i32 0
  store ptr %83, ptr %11, align 8, !tbaa !36
  %84 = load ptr, ptr %11, align 8, !tbaa !36
  %85 = getelementptr inbounds nuw %struct.EncloseNode, ptr %84, i32 0, i32 2
  %86 = load i32, ptr %85, align 8, !tbaa !133
  switch i32 %86, label %114 [
    i32 2, label %87
    i32 1, label %107
    i32 4, label %107
    i32 8, label %107
    i32 16, label %114
  ]

87:                                               ; preds = %81
  call void @llvm.lifetime.start.p0(i64 4, ptr %12) #11
  %88 = load ptr, ptr %6, align 8, !tbaa !21
  %89 = getelementptr inbounds nuw %struct.re_pattern_buffer, ptr %88, i32 0, i32 13
  %90 = load i32, ptr %89, align 8, !tbaa !64
  store i32 %90, ptr %12, align 4, !tbaa !7
  %91 = load ptr, ptr %4, align 8, !tbaa !66
  %92 = getelementptr inbounds nuw %struct._Node, ptr %91, i32 0, i32 0
  %93 = getelementptr inbounds nuw %struct.EncloseNode, ptr %92, i32 0, i32 4
  %94 = load i32, ptr %93, align 8, !tbaa !38
  %95 = load ptr, ptr %6, align 8, !tbaa !21
  %96 = getelementptr inbounds nuw %struct.re_pattern_buffer, ptr %95, i32 0, i32 13
  store i32 %94, ptr %96, align 8, !tbaa !64
  %97 = load ptr, ptr %4, align 8, !tbaa !66
  %98 = getelementptr inbounds nuw %struct._Node, ptr %97, i32 0, i32 0
  %99 = getelementptr inbounds nuw %struct.EncloseNode, ptr %98, i32 0, i32 6
  %100 = load ptr, ptr %99, align 8, !tbaa !38
  %101 = load i32, ptr %5, align 4, !tbaa !7
  %102 = load ptr, ptr %6, align 8, !tbaa !21
  %103 = call ptr @get_head_value_node(ptr noundef %100, i32 noundef %101, ptr noundef %102)
  store ptr %103, ptr %7, align 8, !tbaa !66
  %104 = load i32, ptr %12, align 4, !tbaa !7
  %105 = load ptr, ptr %6, align 8, !tbaa !21
  %106 = getelementptr inbounds nuw %struct.re_pattern_buffer, ptr %105, i32 0, i32 13
  store i32 %104, ptr %106, align 8, !tbaa !64
  call void @llvm.lifetime.end.p0(i64 4, ptr %12) #11
  br label %114

107:                                              ; preds = %81, %81, %81
  %108 = load ptr, ptr %11, align 8, !tbaa !36
  %109 = getelementptr inbounds nuw %struct.EncloseNode, ptr %108, i32 0, i32 6
  %110 = load ptr, ptr %109, align 8, !tbaa !112
  %111 = load i32, ptr %5, align 4, !tbaa !7
  %112 = load ptr, ptr %6, align 8, !tbaa !21
  %113 = call ptr @get_head_value_node(ptr noundef %110, i32 noundef %111, ptr noundef %112)
  store ptr %113, ptr %7, align 8, !tbaa !66
  br label %114

114:                                              ; preds = %81, %81, %107, %87
  call void @llvm.lifetime.end.p0(i64 8, ptr %11) #11
  br label %131

115:                                              ; preds = %3
  %116 = load ptr, ptr %4, align 8, !tbaa !66
  %117 = getelementptr inbounds nuw %struct._Node, ptr %116, i32 0, i32 0
  %118 = getelementptr inbounds nuw %struct.AnchorNode, ptr %117, i32 0, i32 1
  %119 = load i32, ptr %118, align 4, !tbaa !38
  %120 = icmp eq i32 %119, 1024
  br i1 %120, label %121, label %129

121:                                              ; preds = %115
  %122 = load ptr, ptr %4, align 8, !tbaa !66
  %123 = getelementptr inbounds nuw %struct._Node, ptr %122, i32 0, i32 0
  %124 = getelementptr inbounds nuw %struct.AnchorNode, ptr %123, i32 0, i32 2
  %125 = load ptr, ptr %124, align 8, !tbaa !38
  %126 = load i32, ptr %5, align 4, !tbaa !7
  %127 = load ptr, ptr %6, align 8, !tbaa !21
  %128 = call ptr @get_head_value_node(ptr noundef %125, i32 noundef %126, ptr noundef %127)
  store ptr %128, ptr %7, align 8, !tbaa !66
  br label %129

129:                                              ; preds = %121, %115
  br label %131

130:                                              ; preds = %3
  br label %131

131:                                              ; preds = %130, %129, %114, %80, %65, %63, %24, %23, %17
  %132 = load ptr, ptr %7, align 8, !tbaa !66
  store i32 1, ptr %9, align 4
  call void @llvm.lifetime.end.p0(i64 8, ptr %7) #11
  ret ptr %132

133:                                              ; preds = %63
  unreachable
}