; Function Attrs: nofree nosync nounwind sspstrong memory(readwrite, inaccessiblemem: none) uwtable
define internal fastcc ptr @get_head_value_node(ptr noundef readonly captures(ret: address, provenance) %0, i32 noundef range(i32 0, 2) %1, ptr noundef captures(none) %2) unnamed_addr #13 {
  br label %tailrecurse

tailrecurse:                                      ; preds = %tailrecurse.backedge, %3
  %.tr = phi ptr [ %0, %3 ], [ %.tr.be, %tailrecurse.backedge ]
  %4 = load i32, ptr %.tr, align 8, !tbaa !34
  switch i32 %4, label %common.ret58 [
    i32 7, label %38
    i32 6, label %27
    i32 5, label %23
    i32 0, label %8
    i32 2, label %5
    i32 1, label %5
    i32 8, label %tailrecurse.backedge
  ]

5:                                                ; preds = %tailrecurse, %tailrecurse
  %6 = icmp eq i32 %1, 0
  %spec.select = select i1 %6, ptr %.tr, ptr null
  br label %common.ret58

tailrecurse.backedge:                             ; preds = %tailrecurse, %38, %27, %27, %27, %23
  %.sink = phi i64 [ 8, %23 ], [ 24, %27 ], [ 24, %27 ], [ 24, %27 ], [ 8, %38 ], [ 8, %tailrecurse ]
  %7 = getelementptr inbounds nuw i8, ptr %.tr, i64 %.sink
  %.tr.be = load ptr, ptr %7, align 8, !tbaa !34
  br label %tailrecurse

8:                                                ; preds = %tailrecurse
  %9 = getelementptr inbounds nuw i8, ptr %.tr, i64 16
  %10 = load ptr, ptr %9, align 8, !tbaa !157
  %11 = getelementptr inbounds nuw i8, ptr %.tr, i64 8
  %12 = load ptr, ptr %11, align 8, !tbaa !155
  %.not = icmp ugt ptr %10, %12
  br i1 %.not, label %13, label %common.ret58

13:                                               ; preds = %8
  %.not35 = icmp eq i32 %1, 0
  br i1 %.not35, label %22, label %14

14:                                               ; preds = %13
  %15 = getelementptr inbounds nuw i8, ptr %.tr, i64 24
  %16 = load i32, ptr %15, align 8, !tbaa !34
  %17 = and i32 %16, 1
  %.not36 = icmp eq i32 %17, 0
  br i1 %.not36, label %18, label %22

18:                                               ; preds = %14
  %19 = getelementptr inbounds nuw i8, ptr %2, i64 56
  %20 = load i32, ptr %19, align 8, !tbaa !57
  %21 = and i32 %20, 1
  %.not37 = icmp eq i32 %21, 0
  br i1 %.not37, label %22, label %common.ret58

22:                                               ; preds = %18, %14, %13
  br label %common.ret58

23:                                               ; preds = %tailrecurse
  %24 = getelementptr inbounds nuw i8, ptr %.tr, i64 16
  %25 = load i32, ptr %24, align 8, !tbaa !150
  %26 = icmp sgt i32 %25, 0
  br i1 %26, label %tailrecurse.backedge, label %common.ret58

27:                                               ; preds = %tailrecurse
  %28 = getelementptr inbounds nuw i8, ptr %.tr, i64 8
  %29 = load i32, ptr %28, align 8, !tbaa !152
  switch i32 %29, label %common.ret58 [
    i32 2, label %30
    i32 1, label %tailrecurse.backedge
    i32 4, label %tailrecurse.backedge
    i32 8, label %tailrecurse.backedge
  ]

common.ret58:                                     ; preds = %5, %8, %18, %22, %27, %23, %tailrecurse, %38, %30
  %common.ret58.op = phi ptr [ %37, %30 ], [ %spec.select, %5 ], [ null, %8 ], [ %.tr, %22 ], [ null, %18 ], [ null, %27 ], [ null, %23 ], [ null, %tailrecurse ], [ null, %38 ]
  ret ptr %common.ret58.op

30:                                               ; preds = %27
  %31 = getelementptr inbounds nuw i8, ptr %2, i64 56
  %32 = load i32, ptr %31, align 8, !tbaa !57
  %33 = getelementptr inbounds nuw i8, ptr %.tr, i64 16
  %34 = load i32, ptr %33, align 8, !tbaa !34
  store i32 %34, ptr %31, align 8, !tbaa !57
  %35 = getelementptr inbounds nuw i8, ptr %.tr, i64 24
  %36 = load ptr, ptr %35, align 8, !tbaa !34
  %37 = tail call fastcc ptr @get_head_value_node(ptr noundef %36, i32 noundef %1, ptr noundef %2)
  store i32 %32, ptr %31, align 8, !tbaa !57
  br label %common.ret58

38:                                               ; preds = %tailrecurse
  %39 = getelementptr inbounds nuw i8, ptr %.tr, i64 4
  %40 = load i32, ptr %39, align 4, !tbaa !34
  %41 = icmp eq i32 %40, 1024
  br i1 %41, label %tailrecurse.backedge, label %common.ret58
}